target datalayout = "e-m:e-p270:32:32-p271:32:32-p272:64:64-i64:64-i128:128-f80:128-n8:16:32:64-S128"
target triple = "x86_64-unknown-linux-gnu"

%"class.std::vector" = type { %"struct.std::_Vector_base" }
%"struct.std::_Vector_base" = type { %"struct.std::_Vector_base<unsigned long, std::allocator<unsigned long>>::_Vector_impl" }
%"struct.std::_Vector_base<unsigned long, std::allocator<unsigned long>>::_Vector_impl" = type { %"struct.std::_Vector_base<unsigned long, std::allocator<unsigned long>>::_Vector_impl_data" }
%"struct.std::_Vector_base<unsigned long, std::allocator<unsigned long>>::_Vector_impl_data" = type { ptr, ptr, ptr }
%"class.std::mutex" = type { %"class.std::__mutex_base" }
%"class.std::__mutex_base" = type { %union.pthread_mutex_t }
%union.pthread_mutex_t = type { %struct.__pthread_mutex_s }
%struct.__pthread_mutex_s = type { i32, i32, i32, i32, i32, i16, i16, %struct.__pthread_internal_list }
%struct.__pthread_internal_list = type { ptr, ptr }
%"class.facebook::velox::memory::Allocation::PageRun" = type { i64 }
%"class.facebook::velox::memory::MmapAllocator::SizeClass" = type { i64, i64, i64, i32, %"class.std::mutex", ptr, i32, i32, i32, %"class.std::vector", %"class.std::vector", %"class.std::vector", i64, i64, i64 }

@_ZN8facebook5velox4bitsL13kZeroBitmasksE = internal constant [8 x i8] c"\FE\FD\FB\F7\EF\DF\BF\7F", align 1

; Function Attrs: mustprogress nounwind uwtable
define linkonce_odr void @_ZN8facebook5velox4bits8clearBitImEEvPT_j(ptr noundef %bits, i32 noundef %idx) #1 comdat {
entry:
  %bits.addr = alloca ptr, align 8
  %idx.addr = alloca i32, align 4
  %bitsAs8Bit = alloca ptr, align 8
  store ptr %bits, ptr %bits.addr, align 8
  store i32 %idx, ptr %idx.addr, align 4
  %0 = load ptr, ptr %bits.addr, align 8
  store ptr %0, ptr %bitsAs8Bit, align 8
  %1 = load i32, ptr %idx.addr, align 4
  %rem = urem i32 %1, 8
  %idxprom = zext i32 %rem to i64
  %arrayidx = getelementptr inbounds [8 x i8], ptr @_ZN8facebook5velox4bitsL13kZeroBitmasksE, i64 0, i64 %idxprom
  %2 = load i8, ptr %arrayidx, align 1
  %conv = zext i8 %2 to i32
  %3 = load ptr, ptr %bitsAs8Bit, align 8
  %4 = load i32, ptr %idx.addr, align 4
  %div = udiv i32 %4, 8
  %idxprom1 = zext i32 %div to i64
  %arrayidx2 = getelementptr inbounds i8, ptr %3, i64 %idxprom1
  %5 = load i8, ptr %arrayidx2, align 1
  %conv3 = zext i8 %5 to i32
  %and = and i32 %conv3, %conv
  %conv4 = trunc i32 %and to i8
  store i8 %conv4, ptr %arrayidx2, align 1
  ret void
}

; Function Attrs: mustprogress nounwind uwtable
define linkonce_odr void @_ZN8facebook5velox4bits6setBitImEEvPT_j(ptr noundef %bits, i32 noundef %idx) #1 comdat {
entry:
  %bits.addr = alloca ptr, align 8
  %idx.addr = alloca i32, align 4
  %bitsAs8Bit = alloca ptr, align 8
  store ptr %bits, ptr %bits.addr, align 8
  store i32 %idx, ptr %idx.addr, align 4
  %0 = load ptr, ptr %bits.addr, align 8
  store ptr %0, ptr %bitsAs8Bit, align 8
  %1 = load i32, ptr %idx.addr, align 4
  %rem = urem i32 %1, 8
  %shl = shl i32 1, %rem
  %2 = load ptr, ptr %bitsAs8Bit, align 8
  %3 = load i32, ptr %idx.addr, align 4
  %div = udiv i32 %3, 8
  %idxprom = zext i32 %div to i64
  %arrayidx = getelementptr inbounds i8, ptr %2, i64 %idxprom
  %4 = load i8, ptr %arrayidx, align 1
  %conv = zext i8 %4 to i32
  %or = or i32 %conv, %shl
  %conv1 = trunc i32 %or to i8
  store i8 %conv1, ptr %arrayidx, align 1
  ret void
}

; Function Attrs: mustprogress nounwind uwtable
define linkonce_odr noundef ptr @_ZNKSt6vectorImSaImEE11_M_data_ptrImEEPT_S4_(ptr noundef nonnull align 8 dereferenceable(24) %this, ptr noundef %__ptr) #1 comdat align 2 {
entry:
  %this.addr = alloca ptr, align 8
  %__ptr.addr = alloca ptr, align 8
  store ptr %this, ptr %this.addr, align 8
  store ptr %__ptr, ptr %__ptr.addr, align 8
  %0 = load ptr, ptr %__ptr.addr, align 8
  ret ptr %0
}

; Function Attrs: mustprogress uwtable
define linkonce_odr void @_ZN8facebook5velox4bits6setBitImEEvPT_jb(ptr noundef %bits, i32 noundef %idx, i1 noundef zeroext %value) #0 comdat {
entry:
  %bits.addr = alloca ptr, align 8
  %idx.addr = alloca i32, align 4
  %value.addr = alloca i8, align 1
  store ptr %bits, ptr %bits.addr, align 8
  store i32 %idx, ptr %idx.addr, align 4
  %frombool = zext i1 %value to i8
  store i8 %frombool, ptr %value.addr, align 1
  %0 = load i8, ptr %value.addr, align 1
  %tobool = trunc i8 %0 to i1
  br i1 %tobool, label %cond.true, label %cond.false

cond.true:                                        ; preds = %entry
  %1 = load ptr, ptr %bits.addr, align 8
  %2 = load i32, ptr %idx.addr, align 4
  call void @_ZN8facebook5velox4bits6setBitImEEvPT_j(ptr noundef %1, i32 noundef %2)
  br label %cond.end

cond.false:                                       ; preds = %entry
  %3 = load ptr, ptr %bits.addr, align 8
  %4 = load i32, ptr %idx.addr, align 4
  call void @_ZN8facebook5velox4bits8clearBitImEEvPT_j(ptr noundef %3, i32 noundef %4)
  br label %cond.end

cond.end:                                         ; preds = %cond.false, %cond.true
  ret void
}

; Function Attrs: mustprogress nounwind uwtable
define linkonce_odr noundef ptr @_ZNSt6vectorImSaImEE4dataEv(ptr noundef nonnull align 8 dereferenceable(24) %this) #1 comdat align 2 {
entry:
  %this.addr = alloca ptr, align 8
  store ptr %this, ptr %this.addr, align 8
  %this1 = load ptr, ptr %this.addr, align 8
  %_M_impl = getelementptr inbounds %"struct.std::_Vector_base", ptr %this1, i32 0, i32 0
  %_M_start = getelementptr inbounds %"struct.std::_Vector_base<unsigned long, std::allocator<unsigned long>>::_Vector_impl_data", ptr %_M_impl, i32 0, i32 0
  %0 = load ptr, ptr %_M_start, align 8
  %call = call noundef ptr @_ZNKSt6vectorImSaImEE11_M_data_ptrImEEPT_S4_(ptr noundef nonnull align 8 dereferenceable(24) %this1, ptr noundef %0) #21
  ret ptr %call
}

; Function Attrs: mustprogress nounwind uwtable
define linkonce_odr noundef i64 @_ZNK8facebook5velox6memory10Allocation7PageRun8numPagesEv(ptr noundef nonnull align 8 dereferenceable(8) %this) #1 comdat align 2 {
entry:
  %this.addr = alloca ptr, align 8
  store ptr %this, ptr %this.addr, align 8
  %this1 = load ptr, ptr %this.addr, align 8
  %data_ = getelementptr inbounds %"class.facebook::velox::memory::Allocation::PageRun", ptr %this1, i32 0, i32 0
  %0 = load i64, ptr %data_, align 8
  %shr = lshr i64 %0, 48
  ret i64 %shr
}

; Function Attrs: mustprogress nounwind uwtable
define linkonce_odr noundef ptr @_ZNK8facebook5velox6memory10Allocation7PageRun4dataIhEEPT_v(ptr noundef nonnull align 8 dereferenceable(8) %this) #1 comdat align 2 {
entry:
  %this.addr = alloca ptr, align 8
  store ptr %this, ptr %this.addr, align 8
  %this1 = load ptr, ptr %this.addr, align 8
  %data_ = getelementptr inbounds %"class.facebook::velox::memory::Allocation::PageRun", ptr %this1, i32 0, i32 0
  %0 = load i64, ptr %data_, align 8
  %and = and i64 %0, 281474976710655
  %1 = inttoptr i64 %and to ptr
  ret ptr %1
}

; Function Attrs: mustprogress uwtable
define void @_ZN8facebook5velox6memory13MmapAllocator9SizeClass13setMappedBitsENS1_10Allocation7PageRunEb(ptr noundef nonnull align 8 dereferenceable(192) %this, i64 %run.coerce, i1 noundef zeroext %value) #0 align 2 {
entry:
  %numPages.addr.i = alloca i64, align 8
  %run = alloca %"class.facebook::velox::memory::Allocation::PageRun", align 8
  %this.addr = alloca ptr, align 8
  %value.addr = alloca i8, align 1
  %runAddress = alloca ptr, align 8
  %firstBit = alloca i64, align 8
  %numPages = alloca i64, align 8
  %page = alloca i32, align 4
  %coerce.dive = getelementptr inbounds %"class.facebook::velox::memory::Allocation::PageRun", ptr %run, i32 0, i32 0
  store i64 %run.coerce, ptr %coerce.dive, align 8
  store ptr %this, ptr %this.addr, align 8
  %frombool = zext i1 %value to i8
  store i8 %frombool, ptr %value.addr, align 1
  %this1 = load ptr, ptr %this.addr, align 8
  %call = call noundef ptr @_ZNK8facebook5velox6memory10Allocation7PageRun4dataIhEEPT_v(ptr noundef nonnull align 8 dereferenceable(8) %run)
  store ptr %call, ptr %runAddress, align 8
  %0 = load ptr, ptr %runAddress, align 8
  %address_ = getelementptr inbounds %"class.facebook::velox::memory::MmapAllocator::SizeClass", ptr %this1, i32 0, i32 5
  %1 = load ptr, ptr %address_, align 8
  %sub.ptr.lhs.cast = ptrtoint ptr %0 to i64
  %sub.ptr.rhs.cast = ptrtoint ptr %1 to i64
  %sub.ptr.sub = sub i64 %sub.ptr.lhs.cast, %sub.ptr.rhs.cast
  %unitSize_ = getelementptr inbounds %"class.facebook::velox::memory::MmapAllocator::SizeClass", ptr %this1, i32 0, i32 1
  %2 = load i64, ptr %unitSize_, align 8
  %mul = mul i64 4096, %2
  %rem = urem i64 %sub.ptr.sub, %mul
  %cmp = icmp eq i64 %rem, 0
  %lnot = xor i1 %cmp, true
  br i1 %lnot, label %if.then, label %if.end

if.then:                                          ; preds = %entry
  call void @llvm.trap()
  br label %if.end

if.end:                                           ; preds = %if.then, %entry
  %3 = load ptr, ptr %runAddress, align 8
  %address_2 = getelementptr inbounds %"class.facebook::velox::memory::MmapAllocator::SizeClass", ptr %this1, i32 0, i32 5
  %4 = load ptr, ptr %address_2, align 8
  %sub.ptr.lhs.cast3 = ptrtoint ptr %3 to i64
  %sub.ptr.rhs.cast4 = ptrtoint ptr %4 to i64
  %sub.ptr.sub5 = sub i64 %sub.ptr.lhs.cast3, %sub.ptr.rhs.cast4
  %unitSize_6 = getelementptr inbounds %"class.facebook::velox::memory::MmapAllocator::SizeClass", ptr %this1, i32 0, i32 1
  %5 = load i64, ptr %unitSize_6, align 8
  store i64 %5, ptr %numPages.addr.i, align 8
  %6 = load i64, ptr %numPages.addr.i, align 8
  %mul.i = mul i64 %6, 4096
  %div = udiv i64 %sub.ptr.sub5, %mul.i
  store i64 %div, ptr %firstBit, align 8
  %call8 = call noundef i64 @_ZNK8facebook5velox6memory10Allocation7PageRun8numPagesEv(ptr noundef nonnull align 8 dereferenceable(8) %run)
  %unitSize_9 = getelementptr inbounds %"class.facebook::velox::memory::MmapAllocator::SizeClass", ptr %this1, i32 0, i32 1
  %7 = load i64, ptr %unitSize_9, align 8
  %div10 = udiv i64 %call8, %7
  store i64 %div10, ptr %numPages, align 8
  %8 = load i64, ptr %firstBit, align 8
  %conv = trunc i64 %8 to i32
  store i32 %conv, ptr %page, align 4
  br label %for.cond

for.cond:                                         ; preds = %for.inc, %if.end
  %9 = load i32, ptr %page, align 4
  %conv11 = sext i32 %9 to i64
  %10 = load i64, ptr %firstBit, align 8
  %11 = load i64, ptr %numPages, align 8
  %add = add i64 %10, %11
  %cmp12 = icmp ult i64 %conv11, %add
  br i1 %cmp12, label %for.body, label %for.end

for.body:                                         ; preds = %for.cond
  %pageMapped_ = getelementptr inbounds %"class.facebook::velox::memory::MmapAllocator::SizeClass", ptr %this1, i32 0, i32 11
  %call13 = call noundef ptr @_ZNSt6vectorImSaImEE4dataEv(ptr noundef nonnull align 8 dereferenceable(24) %pageMapped_) #21
  %12 = load i32, ptr %page, align 4
  %13 = load i8, ptr %value.addr, align 1
  %tobool = trunc i8 %13 to i1
  call void @_ZN8facebook5velox4bits6setBitImEEvPT_jb(ptr noundef %call13, i32 noundef %12, i1 noundef zeroext %tobool)
  br label %for.inc

for.inc:                                          ; preds = %for.body
  %14 = load i32, ptr %page, align 4
  %inc = add nsw i32 %14, 1
  store i32 %inc, ptr %page, align 4
  br label %for.cond, !llvm.loop !67

for.end:                                          ; preds = %for.cond
  ret void
}