; Function Attrs: mustprogress nounwind memory(readwrite, inaccessiblemem: write) uwtable
define void @_ZN8facebook5velox6memory13MmapAllocator9SizeClass13setMappedBitsENS1_10Allocation7PageRunEb(ptr nocapture noundef nonnull readonly align 8 dereferenceable(192) %this, i64 %run.coerce, i1 noundef zeroext %value) local_unnamed_addr #20 align 2 {
entry:
  %and.i = and i64 %run.coerce, 281474976710655
  %address_ = getelementptr inbounds i8, ptr %this, i64 72
  %0 = load ptr, ptr %address_, align 8
  %sub.ptr.rhs.cast = ptrtoint ptr %0 to i64
  %sub.ptr.sub = sub i64 %and.i, %sub.ptr.rhs.cast
  %unitSize_ = getelementptr inbounds i8, ptr %this, i64 8
  %1 = load i64, ptr %unitSize_, align 8
  %mul = shl i64 %1, 12
  %rem = urem i64 %sub.ptr.sub, %mul
  %div = udiv i64 %sub.ptr.sub, %mul
  %cmp.not = icmp eq i64 %rem, 0
  br i1 %cmp.not, label %if.end, label %if.then

if.then:                                          ; preds = %entry
  tail call void @llvm.trap()
  unreachable

if.end:                                           ; preds = %entry
  %shr.i = lshr i64 %run.coerce, 48
  %div10 = udiv i64 %shr.i, %1
  %add = add i64 %div10, %div
  %sext = shl i64 %div, 32
  %conv116 = ashr exact i64 %sext, 32
  %cmp127 = icmp ugt i64 %add, %conv116
  br i1 %cmp127, label %for.body.lr.ph, label %for.end

for.body.lr.ph:                                   ; preds = %if.end
  %pageMapped_ = getelementptr inbounds i8, ptr %this, i64 144
  br i1 %value, label %for.body.us, label %for.body

for.body.us:                                      ; preds = %for.body.lr.ph, %for.body.us
  %indvars.iv11 = phi i64 [ %indvars.iv.next12, %for.body.us ], [ %conv116, %for.body.lr.ph ]
  %2 = load ptr, ptr %pageMapped_, align 8
  %3 = trunc i64 %indvars.iv11 to i8
  %rem.i.i.us = and i8 %3, 7
  %shl.i.i.us = shl nuw i8 1, %rem.i.i.us
  %div2.i.i.us = lshr i64 %indvars.iv11, 3
  %idxprom.i.i.us = and i64 %div2.i.i.us, 536870911
  %arrayidx.i.i.us = getelementptr inbounds i8, ptr %2, i64 %idxprom.i.i.us
  %4 = load i8, ptr %arrayidx.i.i.us, align 1
  %conv1.i.i.us = or i8 %4, %shl.i.i.us
  store i8 %conv1.i.i.us, ptr %arrayidx.i.i.us, align 1
  %indvars.iv.next12 = add nuw nsw i64 %indvars.iv11, 1
  %cmp12.us = icmp ugt i64 %add, %indvars.iv.next12
  br i1 %cmp12.us, label %for.body.us, label %for.end, !llvm.loop !53

for.body:                                         ; preds = %for.body.lr.ph, %for.body
  %indvars.iv = phi i64 [ %indvars.iv.next, %for.body ], [ %conv116, %for.body.lr.ph ]
  %5 = load ptr, ptr %pageMapped_, align 8
  %rem.i.i = and i64 %indvars.iv, 7
  %arrayidx.i5.i = getelementptr inbounds [8 x i8], ptr @_ZN8facebook5velox4bitsL13kZeroBitmasksE, i64 0, i64 %rem.i.i
  %6 = load i8, ptr %arrayidx.i5.i, align 1
  %div2.i6.i = lshr i64 %indvars.iv, 3
  %idxprom1.i.i = and i64 %div2.i6.i, 536870911
  %arrayidx2.i.i = getelementptr inbounds i8, ptr %5, i64 %idxprom1.i.i
  %7 = load i8, ptr %arrayidx2.i.i, align 1
  %and3.i.i = and i8 %7, %6
  store i8 %and3.i.i, ptr %arrayidx2.i.i, align 1
  %indvars.iv.next = add nuw nsw i64 %indvars.iv, 1
  %cmp12 = icmp ugt i64 %add, %indvars.iv.next
  br i1 %cmp12, label %for.body, label %for.end, !llvm.loop !53

for.end:                                          ; preds = %for.body, %for.body.us, %if.end
  ret void
}